target datalayout = "e-m:e-p270:32:32-p271:32:32-p272:64:64-i64:64-i128:128-f80:128-n8:16:32:64-S128"
target triple = "x86_64-pc-linux-gnu"

%struct.quic_conn_st = type { %struct.quic_obj_st, ptr, ptr, ptr, ptr, ptr, ptr, ptr, ptr, %union.bio_addr_st, %struct.quic_thread_assist_st, i64, i16, i32, i32, i64, i32, i64, i32 }
%struct.quic_obj_st = type { %struct.ssl_st, ptr, ptr, ptr, ptr, ptr, i64, i8 }
%struct.ssl_st = type { i32, ptr, ptr, ptr, %struct.CRYPTO_REF_COUNT, ptr, %struct.crypto_ex_data_st }
%struct.CRYPTO_REF_COUNT = type { i32 }
%struct.crypto_ex_data_st = type { ptr, ptr }
%union.bio_addr_st = type { %struct.sockaddr_in6, [84 x i8] }
%struct.sockaddr_in6 = type { i16, i16, i32, %struct.in6_addr, i32 }
%struct.in6_addr = type { %union.anon }
%union.anon = type { [4 x i32] }
%struct.quic_thread_assist_st = type { ptr, ptr, ptr, i32, i32 }
%struct.OSSL_TIME = type { i64 }
%struct.qctx_st = type { ptr, ptr, ptr, ptr, ptr, i32, i32, i32, i32 }
%struct.quic_xso_st = type { %struct.quic_obj_st, ptr, ptr, i8, ptr, i64, i64, i32, i64, i32 }
%struct.quic_stream_st = type { %struct.quic_stream_list_node_st, %struct.quic_stream_list_node_st, %struct.quic_stream_list_node_st, ptr, i64, i64, i64, i64, i64, i64, i64, ptr, ptr, %struct.quic_txfc_st, %struct.quic_rxfc_st, i64 }
%struct.quic_stream_list_node_st = type { ptr, ptr }
%struct.quic_txfc_st = type { ptr, i64, i64, i8 }
%struct.quic_rxfc_st = type { i64, i64, i64, i64, i64, i64, i64, %struct.OSSL_TIME, ptr, ptr, ptr, i8, i8, i8, i8 }

; Function Attrs: inlinehint nounwind uwtable
define internal i32 @ossl_quic_stream_is_server_init(ptr noundef %0) #3 {
  %2 = alloca ptr, align 8
  store ptr %0, ptr %2, align 8, !tbaa !204
  %3 = load ptr, ptr %2, align 8, !tbaa !204
  %4 = getelementptr inbounds nuw %struct.quic_stream_st, ptr %3, i32 0, i32 15
  %5 = load i64, ptr %4, align 8
  %6 = and i64 %5, 255
  %7 = trunc i64 %6 to i32
  %8 = and i32 %7, 1
  %9 = icmp eq i32 %8, 1
  %10 = zext i1 %9 to i32
  ret i32 %10
}

; Function Attrs: inlinehint nounwind uwtable
define internal i32 @ossl_quic_stream_is_bidi(ptr noundef %0) #3 {
  %2 = alloca ptr, align 8
  store ptr %0, ptr %2, align 8, !tbaa !204
  %3 = load ptr, ptr %2, align 8, !tbaa !204
  %4 = getelementptr inbounds nuw %struct.quic_stream_st, ptr %3, i32 0, i32 15
  %5 = load i64, ptr %4, align 8
  %6 = and i64 %5, 255
  %7 = trunc i64 %6 to i32
  %8 = and i32 %7, 2
  %9 = icmp eq i32 %8, 0
  %10 = zext i1 %9 to i32
  ret i32 %10
}

; Function Attrs: nounwind uwtable
define internal i32 @expect_quic_cs(ptr noundef %0, ptr noundef %1) #0 {
  %3 = alloca ptr, align 8
  %4 = alloca ptr, align 8
  store ptr %0, ptr %3, align 8, !tbaa !136
  store ptr %1, ptr %4, align 8, !tbaa !119
  %5 = load ptr, ptr %3, align 8, !tbaa !136
  %6 = load ptr, ptr %4, align 8, !tbaa !119
  %7 = call i32 @expect_quic_as(ptr noundef %5, ptr noundef %6, i32 noundef 3)
  ret i32 %7
}

; Function Attrs: nounwind uwtable
define i32 @ossl_quic_get_stream_type(ptr noundef %0) #0 {
  %2 = alloca i32, align 4
  %3 = alloca ptr, align 8
  %4 = alloca %struct.qctx_st, align 8
  %5 = alloca i32, align 4
  store ptr %0, ptr %3, align 8, !tbaa !136
  call void @llvm.lifetime.start.p0(i64 56, ptr %4) #10
  %6 = load ptr, ptr %3, align 8, !tbaa !136
  %7 = call i32 @expect_quic_cs(ptr noundef %6, ptr noundef %4)
  %8 = icmp ne i32 %7, 0
  br i1 %8, label %10, label %9

9:                                                ; preds = %1
  store i32 3, ptr %2, align 4
  store i32 1, ptr %5, align 4
  br label %55

10:                                               ; preds = %1
  %11 = getelementptr inbounds nuw %struct.qctx_st, ptr %4, i32 0, i32 4
  %12 = load ptr, ptr %11, align 8, !tbaa !141
  %13 = icmp eq ptr %12, null
  br i1 %13, label %14, label %31

14:                                               ; preds = %10
  %15 = getelementptr inbounds nuw %struct.qctx_st, ptr %4, i32 0, i32 3
  %16 = load ptr, ptr %15, align 8, !tbaa !123
  %17 = getelementptr inbounds nuw %struct.quic_conn_st, ptr %16, i32 0, i32 12
  %18 = load i16, ptr %17, align 8
  %19 = lshr i16 %18, 4
  %20 = and i16 %19, 1
  %21 = zext i16 %20 to i32
  %22 = icmp ne i32 %21, 0
  br i1 %22, label %29, label %23

23:                                               ; preds = %14
  %24 = getelementptr inbounds nuw %struct.qctx_st, ptr %4, i32 0, i32 3
  %25 = load ptr, ptr %24, align 8, !tbaa !123
  %26 = getelementptr inbounds nuw %struct.quic_conn_st, ptr %25, i32 0, i32 13
  %27 = load i32, ptr %26, align 4, !tbaa !111
  %28 = icmp eq i32 %27, 0
  br i1 %28, label %29, label %30

29:                                               ; preds = %23, %14
  store i32 0, ptr %2, align 4
  store i32 1, ptr %5, align 4
  br label %55

30:                                               ; preds = %23
  store i32 3, ptr %2, align 4
  store i32 1, ptr %5, align 4
  br label %55

31:                                               ; preds = %10
  %32 = getelementptr inbounds nuw %struct.qctx_st, ptr %4, i32 0, i32 4
  %33 = load ptr, ptr %32, align 8, !tbaa !141
  %34 = getelementptr inbounds nuw %struct.quic_xso_st, ptr %33, i32 0, i32 2
  %35 = load ptr, ptr %34, align 8, !tbaa !142
  %36 = call i32 @ossl_quic_stream_is_bidi(ptr noundef %35)
  %37 = icmp ne i32 %36, 0
  br i1 %37, label %38, label %39

38:                                               ; preds = %31
  store i32 3, ptr %2, align 4
  store i32 1, ptr %5, align 4
  br label %55

39:                                               ; preds = %31
  %40 = getelementptr inbounds nuw %struct.qctx_st, ptr %4, i32 0, i32 4
  %41 = load ptr, ptr %40, align 8, !tbaa !141
  %42 = getelementptr inbounds nuw %struct.quic_xso_st, ptr %41, i32 0, i32 2
  %43 = load ptr, ptr %42, align 8, !tbaa !142
  %44 = call i32 @ossl_quic_stream_is_server_init(ptr noundef %43)
  %45 = getelementptr inbounds nuw %struct.qctx_st, ptr %4, i32 0, i32 3
  %46 = load ptr, ptr %45, align 8, !tbaa !123
  %47 = getelementptr inbounds nuw %struct.quic_conn_st, ptr %46, i32 0, i32 12
  %48 = load i16, ptr %47, align 8
  %49 = lshr i16 %48, 1
  %50 = and i16 %49, 1
  %51 = zext i16 %50 to i32
  %52 = icmp ne i32 %44, %51
  br i1 %52, label %53, label %54

53:                                               ; preds = %39
  store i32 1, ptr %2, align 4
  store i32 1, ptr %5, align 4
  br label %55

54:                                               ; preds = %39
  store i32 2, ptr %2, align 4
  store i32 1, ptr %5, align 4
  br label %55

55:                                               ; preds = %54, %53, %38, %30, %29, %9
  call void @llvm.lifetime.end.p0(i64 56, ptr %4) #10
  %56 = load i32, ptr %2, align 4
  ret i32 %56
}