; Function Attrs: nounwind uwtable
define range(i32 0, 4) i32 @ossl_quic_get_stream_type(ptr noundef %0) local_unnamed_addr #0 {
  %2 = alloca %struct.qctx_st, align 8
  call void @llvm.lifetime.start.p0(i64 56, ptr nonnull %2) #12
  %3 = call fastcc range(i32 0, 2) i32 @expect_quic_as(ptr noundef %0, ptr noundef nonnull %2, i32 noundef 3)
  %.not = icmp eq i32 %3, 0
  br i1 %.not, label %33, label %4

4:                                                ; preds = %1
  %5 = getelementptr inbounds nuw i8, ptr %2, i64 32
  %6 = load ptr, ptr %5, align 8, !tbaa !130
  %7 = icmp eq ptr %6, null
  br i1 %7, label %8, label %18

8:                                                ; preds = %4
  %9 = getelementptr inbounds nuw i8, ptr %2, i64 24
  %10 = load ptr, ptr %9, align 8, !tbaa !134
  %11 = getelementptr inbounds nuw i8, ptr %10, i64 336
  %12 = load i16, ptr %11, align 8
  %13 = and i16 %12, 16
  %.not4 = icmp eq i16 %13, 0
  br i1 %.not4, label %14, label %33

14:                                               ; preds = %8
  %15 = getelementptr inbounds nuw i8, ptr %10, i64 340
  %16 = load i32, ptr %15, align 4, !tbaa !116
  %17 = icmp eq i32 %16, 0
  %spec.select = select i1 %17, i32 0, i32 3
  br label %33

18:                                               ; preds = %4
  %19 = getelementptr inbounds nuw i8, ptr %6, i64 128
  %20 = load ptr, ptr %19, align 8, !tbaa !145
  %21 = getelementptr i8, ptr %20, i64 256
  %.val = load i64, ptr %21, align 8
  %22 = and i64 %.val, 2
  %.not6 = icmp eq i64 %22, 0
  br i1 %.not6, label %33, label %23

23:                                               ; preds = %18
  %24 = trunc i64 %.val to i32
  %25 = and i32 %24, 1
  %26 = getelementptr inbounds nuw i8, ptr %2, i64 24
  %27 = load ptr, ptr %26, align 8, !tbaa !134
  %28 = getelementptr inbounds nuw i8, ptr %27, i64 336
  %29 = load i16, ptr %28, align 8
  %30 = lshr i16 %29, 1
  %31 = and i16 %30, 1
  %32 = zext nneg i16 %31 to i32
  %.not3 = icmp eq i32 %25, %32
  %. = select i1 %.not3, i32 2, i32 1
  br label %33

33:                                               ; preds = %14, %23, %18, %8, %1
  %.0 = phi i32 [ 3, %1 ], [ 0, %8 ], [ 3, %18 ], [ %., %23 ], [ %spec.select, %14 ]
  call void @llvm.lifetime.end.p0(i64 56, ptr nonnull %2) #12
  ret i32 %.0
}